target datalayout = "e-m:e-p270:32:32-p271:32:32-p272:64:64-i64:64-i128:128-f80:128-n8:16:32:64-S128"
target triple = "x86_64-pc-linux-gnu"

%struct.DdNode = type { i32, i32, ptr, %union.anon, i64 }
%union.anon = type { %struct.DdChildren }
%struct.DdChildren = type { ptr, ptr }
%struct.EpDoubleStruct = type { %union.EpTypeUnion, i32 }
%union.EpTypeUnion = type { double }

@background = internal global ptr null, align 8
@zero = internal global ptr null, align 8

; Function Attrs: nounwind uwtable
define internal i32 @ddEpdCountMintermAux(ptr noundef %0, ptr noundef %1, ptr noundef %2, ptr noundef %3) #0 {
  %5 = alloca i32, align 4
  %6 = alloca ptr, align 8
  %7 = alloca ptr, align 8
  %8 = alloca ptr, align 8
  %9 = alloca ptr, align 8
  %10 = alloca ptr, align 8
  %11 = alloca ptr, align 8
  %12 = alloca ptr, align 8
  %13 = alloca %struct.EpDoubleStruct, align 8
  %14 = alloca %struct.EpDoubleStruct, align 8
  %15 = alloca ptr, align 8
  %16 = alloca i32, align 4
  store ptr %0, ptr %6, align 8
  store ptr %1, ptr %7, align 8
  store ptr %2, ptr %8, align 8
  store ptr %3, ptr %9, align 8
  %17 = load ptr, ptr %6, align 8
  %18 = getelementptr inbounds %struct.DdNode, ptr %17, i32 0, i32 0
  %19 = load i32, ptr %18, align 8
  %20 = icmp eq i32 %19, 2147483647
  br i1 %20, label %21, label %35

21:                                               ; preds = %4
  %22 = load ptr, ptr %6, align 8
  %23 = load ptr, ptr @background, align 8
  %24 = icmp eq ptr %22, %23
  br i1 %24, label %29, label %25

25:                                               ; preds = %21
  %26 = load ptr, ptr %6, align 8
  %27 = load ptr, ptr @zero, align 8
  %28 = icmp eq ptr %26, %27
  br i1 %28, label %29, label %31

29:                                               ; preds = %25, %21
  %30 = load ptr, ptr %8, align 8
  call void @EpdMakeZero(ptr noundef %30, i32 noundef 0)
  br label %34

31:                                               ; preds = %25
  %32 = load ptr, ptr %7, align 8
  %33 = load ptr, ptr %8, align 8
  call void @EpdCopy(ptr noundef %32, ptr noundef %33)
  br label %34

34:                                               ; preds = %31, %29
  store i32 0, ptr %5, align 4
  br label %108

35:                                               ; preds = %4
  %36 = load ptr, ptr %6, align 8
  %37 = getelementptr inbounds %struct.DdNode, ptr %36, i32 0, i32 1
  %38 = load i32, ptr %37, align 4
  %39 = icmp ne i32 %38, 1
  br i1 %39, label %40, label %48

40:                                               ; preds = %35
  %41 = load ptr, ptr %9, align 8
  %42 = load ptr, ptr %6, align 8
  %43 = call i32 @st__lookup(ptr noundef %41, ptr noundef %42, ptr noundef %15)
  %44 = icmp ne i32 %43, 0
  br i1 %44, label %45, label %48

45:                                               ; preds = %40
  %46 = load ptr, ptr %15, align 8
  %47 = load ptr, ptr %8, align 8
  call void @EpdCopy(ptr noundef %46, ptr noundef %47)
  store i32 0, ptr %5, align 4
  br label %108

48:                                               ; preds = %40, %35
  %49 = load ptr, ptr %6, align 8
  %50 = getelementptr inbounds %struct.DdNode, ptr %49, i32 0, i32 3
  %51 = getelementptr inbounds %struct.DdChildren, ptr %50, i32 0, i32 0
  %52 = load ptr, ptr %51, align 8
  store ptr %52, ptr %10, align 8
  %53 = load ptr, ptr %6, align 8
  %54 = getelementptr inbounds %struct.DdNode, ptr %53, i32 0, i32 3
  %55 = getelementptr inbounds %struct.DdChildren, ptr %54, i32 0, i32 1
  %56 = load ptr, ptr %55, align 8
  store ptr %56, ptr %11, align 8
  %57 = load ptr, ptr %10, align 8
  %58 = load ptr, ptr %7, align 8
  %59 = load ptr, ptr %9, align 8
  %60 = call i32 @ddEpdCountMintermAux(ptr noundef %57, ptr noundef %58, ptr noundef %13, ptr noundef %59)
  store i32 %60, ptr %16, align 4
  %61 = load i32, ptr %16, align 4
  %62 = icmp eq i32 %61, -1
  br i1 %62, label %63, label %64

63:                                               ; preds = %48
  store i32 -1, ptr %5, align 4
  br label %108

64:                                               ; preds = %48
  call void @EpdMultiply(ptr noundef %13, double noundef 5.000000e-01)
  %65 = load ptr, ptr %11, align 8
  %66 = ptrtoint ptr %65 to i64
  %67 = and i64 %66, -2
  %68 = inttoptr i64 %67 to ptr
  %69 = load ptr, ptr %7, align 8
  %70 = load ptr, ptr %9, align 8
  %71 = call i32 @ddEpdCountMintermAux(ptr noundef %68, ptr noundef %69, ptr noundef %14, ptr noundef %70)
  store i32 %71, ptr %16, align 4
  %72 = load i32, ptr %16, align 4
  %73 = icmp eq i32 %72, -1
  br i1 %73, label %74, label %75

74:                                               ; preds = %64
  store i32 -1, ptr %5, align 4
  br label %108

75:                                               ; preds = %64
  %76 = load ptr, ptr %11, align 8
  %77 = ptrtoint ptr %76 to i64
  %78 = and i64 %77, 1
  %79 = trunc i64 %78 to i32
  %80 = icmp ne i32 %79, 0
  br i1 %80, label %81, label %85

81:                                               ; preds = %75
  %82 = load ptr, ptr %7, align 8
  %83 = load ptr, ptr %8, align 8
  call void @EpdSubtract3(ptr noundef %82, ptr noundef %14, ptr noundef %83)
  %84 = load ptr, ptr %8, align 8
  call void @EpdCopy(ptr noundef %84, ptr noundef %14)
  br label %85

85:                                               ; preds = %81, %75
  call void @EpdMultiply(ptr noundef %14, double noundef 5.000000e-01)
  %86 = load ptr, ptr %8, align 8
  call void @EpdAdd3(ptr noundef %13, ptr noundef %14, ptr noundef %86)
  %87 = load ptr, ptr %6, align 8
  %88 = getelementptr inbounds %struct.DdNode, ptr %87, i32 0, i32 1
  %89 = load i32, ptr %88, align 4
  %90 = icmp ugt i32 %89, 1
  br i1 %90, label %91, label %107

91:                                               ; preds = %85
  %92 = call ptr @EpdAlloc()
  store ptr %92, ptr %12, align 8
  %93 = load ptr, ptr %12, align 8
  %94 = icmp ne ptr %93, null
  br i1 %94, label %96, label %95

95:                                               ; preds = %91
  store i32 -1, ptr %5, align 4
  br label %108

96:                                               ; preds = %91
  %97 = load ptr, ptr %8, align 8
  %98 = load ptr, ptr %12, align 8
  call void @EpdCopy(ptr noundef %97, ptr noundef %98)
  %99 = load ptr, ptr %9, align 8
  %100 = load ptr, ptr %6, align 8
  %101 = load ptr, ptr %12, align 8
  %102 = call i32 @st__insert(ptr noundef %99, ptr noundef %100, ptr noundef %101)
  %103 = icmp eq i32 %102, -10000
  br i1 %103, label %104, label %106

104:                                              ; preds = %96
  %105 = load ptr, ptr %12, align 8
  call void @EpdFree(ptr noundef %105)
  store i32 -1, ptr %5, align 4
  br label %108

106:                                              ; preds = %96
  br label %107

107:                                              ; preds = %106, %85
  store i32 0, ptr %5, align 4
  br label %108

108:                                              ; preds = %107, %104, %95, %74, %63, %45, %34
  %109 = load i32, ptr %5, align 4
  ret i32 %109
}