; Function Attrs: nounwind uwtable
define internal fastcc range(i32 -1, 1) i32 @ddEpdCountMintermAux(ptr noundef %0, ptr noundef nonnull %1, ptr noundef %2, ptr noundef nonnull %3) unnamed_addr #0 {
  %5 = alloca %struct.EpDoubleStruct, align 8
  %6 = alloca %struct.EpDoubleStruct, align 8
  %7 = alloca ptr, align 8
  %8 = load i32, ptr %0, align 8
  %9 = icmp eq i32 %8, 2147483647
  br i1 %9, label %10, label %17

10:                                               ; preds = %4
  %11 = load ptr, ptr @background, align 8
  %12 = icmp eq ptr %0, %11
  %13 = load ptr, ptr @zero, align 8
  %14 = icmp eq ptr %0, %13
  %or.cond = select i1 %12, i1 true, i1 %14
  br i1 %or.cond, label %15, label %16

15:                                               ; preds = %10
  tail call void @EpdMakeZero(ptr noundef %2, i32 noundef 0) #23
  br label %49

16:                                               ; preds = %10
  tail call void @EpdCopy(ptr noundef nonnull %1, ptr noundef %2) #23
  br label %49

17:                                               ; preds = %4
  %18 = getelementptr inbounds nuw i8, ptr %0, i64 4
  %19 = load i32, ptr %18, align 4
  %.not = icmp eq i32 %19, 1
  br i1 %.not, label %24, label %20

20:                                               ; preds = %17
  %21 = call i32 @st__lookup(ptr noundef nonnull %3, ptr noundef nonnull %0, ptr noundef nonnull %7) #23
  %.not35 = icmp eq i32 %21, 0
  br i1 %.not35, label %24, label %22

22:                                               ; preds = %20
  %23 = load ptr, ptr %7, align 8
  call void @EpdCopy(ptr noundef %23, ptr noundef %2) #23
  br label %49

24:                                               ; preds = %20, %17
  %25 = getelementptr inbounds nuw i8, ptr %0, i64 16
  %26 = load ptr, ptr %25, align 8
  %27 = getelementptr inbounds nuw i8, ptr %0, i64 24
  %28 = load ptr, ptr %27, align 8
  %29 = call fastcc i32 @ddEpdCountMintermAux(ptr noundef %26, ptr noundef %1, ptr noundef nonnull %5, ptr noundef %3)
  %30 = icmp eq i32 %29, -1
  br i1 %30, label %49, label %31

31:                                               ; preds = %24
  call void @EpdMultiply(ptr noundef nonnull %5, double noundef 5.000000e-01) #23
  %32 = ptrtoint ptr %28 to i64
  %33 = and i64 %32, -2
  %34 = inttoptr i64 %33 to ptr
  %35 = call fastcc i32 @ddEpdCountMintermAux(ptr noundef %34, ptr noundef %1, ptr noundef nonnull %6, ptr noundef %3)
  %36 = icmp eq i32 %35, -1
  br i1 %36, label %49, label %37

37:                                               ; preds = %31
  %38 = and i64 %32, 1
  %.not36 = icmp eq i64 %38, 0
  br i1 %.not36, label %40, label %39

39:                                               ; preds = %37
  call void @EpdSubtract3(ptr noundef nonnull %1, ptr noundef nonnull %6, ptr noundef %2) #23
  call void @EpdCopy(ptr noundef %2, ptr noundef nonnull %6) #23
  br label %40

40:                                               ; preds = %39, %37
  call void @EpdMultiply(ptr noundef nonnull %6, double noundef 5.000000e-01) #23
  call void @EpdAdd3(ptr noundef nonnull %5, ptr noundef nonnull %6, ptr noundef %2) #23
  %41 = load i32, ptr %18, align 4
  %42 = icmp ugt i32 %41, 1
  br i1 %42, label %43, label %49

43:                                               ; preds = %40
  %44 = call ptr @EpdAlloc() #23
  %.not37 = icmp eq ptr %44, null
  br i1 %.not37, label %49, label %45

45:                                               ; preds = %43
  call void @EpdCopy(ptr noundef %2, ptr noundef nonnull %44) #23
  %46 = call i32 @st__insert(ptr noundef nonnull %3, ptr noundef nonnull %0, ptr noundef nonnull %44) #23
  %47 = icmp eq i32 %46, -10000
  br i1 %47, label %48, label %49

48:                                               ; preds = %45
  call void @EpdFree(ptr noundef nonnull %44) #23
  br label %49

49:                                               ; preds = %40, %45, %43, %31, %24, %15, %16, %48, %22
  %.0 = phi i32 [ 0, %22 ], [ -1, %48 ], [ 0, %16 ], [ 0, %15 ], [ -1, %24 ], [ -1, %31 ], [ -1, %43 ], [ 0, %45 ], [ 0, %40 ]
  ret i32 %.0
}